
a.out:     file format elf64-littleriscv


Disassembly of section .text:

0000000080000000 <main>:
    80000000:	4305                	li	t1,1
    80000002:	032e                	slli	t1,t1,0xb
    80000004:	30032073          	csrs	mstatus,t1
    80000008:	00000e97          	auipc	t4,0x0
    8000000c:	01ce8e93          	addi	t4,t4,28 # 80000024 <supervisor>
    80000010:	341e9073          	csrw	mepc,t4
    80000014:	00000f17          	auipc	t5,0x0
    80000018:	0ccf0f13          	addi	t5,t5,204 # 800000e0 <page_fault_handler>
    8000001c:	305f1073          	csrw	mtvec,t5
    80000020:	30200073          	mret

0000000080000024 <supervisor>:
    80000024:	0810051b          	addiw	a0,zero,129
    80000028:	0562                	slli	a0,a0,0x18
    8000002a:	000825b7          	lui	a1,0x82
    8000002e:	05aa                	slli	a1,a1,0xa
    80000030:	0015e593          	ori	a1,a1,1
    80000034:	e90c                	sd	a1,16(a0)
    80000036:	000825b7          	lui	a1,0x82
    8000003a:	2585                	addiw	a1,a1,1
    8000003c:	05aa                	slli	a1,a1,0xa
    8000003e:	0015e593          	ori	a1,a1,1
    80000042:	e10c                	sd	a1,0(a0)
    80000044:	0410051b          	addiw	a0,zero,65
    80000048:	0566                	slli	a0,a0,0x19
    8000004a:	000835b7          	lui	a1,0x83
    8000004e:	05aa                	slli	a1,a1,0xa
    80000050:	0015e593          	ori	a1,a1,1
    80000054:	e10c                	sd	a1,0(a0)
    80000056:	0830051b          	addiw	a0,zero,131
    8000005a:	0562                	slli	a0,a0,0x18
    8000005c:	000805b7          	lui	a1,0x80
    80000060:	05aa                	slli	a1,a1,0xa
    80000062:	0ef5e593          	ori	a1,a1,239
    80000066:	e10c                	sd	a1,0(a0)
    80000068:	000805b7          	lui	a1,0x80
    8000006c:	2585                	addiw	a1,a1,1
    8000006e:	05aa                	slli	a1,a1,0xa
    80000070:	0ef5e593          	ori	a1,a1,239
    80000074:	e50c                	sd	a1,8(a0)
    80000076:	00082537          	lui	a0,0x82
    8000007a:	2505                	addiw	a0,a0,1
    8000007c:	0532                	slli	a0,a0,0xc
    8000007e:	000835b7          	lui	a1,0x83
    80000082:	2585                	addiw	a1,a1,1
    80000084:	05aa                	slli	a1,a1,0xa
    80000086:	0015e593          	ori	a1,a1,1
    8000008a:	e10c                	sd	a1,0(a0)
    8000008c:	00083537          	lui	a0,0x83
    80000090:	2505                	addiw	a0,a0,1
    80000092:	0532                	slli	a0,a0,0xc
    80000094:	000805b7          	lui	a1,0x80
    80000098:	2585                	addiw	a1,a1,1
    8000009a:	05aa                	slli	a1,a1,0xa
    8000009c:	0f95e593          	ori	a1,a1,249
    800000a0:	e10c                	sd	a1,0(a0)
    800000a2:	000805b7          	lui	a1,0x80
    800000a6:	2589                	addiw	a1,a1,2
    800000a8:	05aa                	slli	a1,a1,0xa
    800000aa:	0f75e593          	ori	a1,a1,247
    800000ae:	e50c                	sd	a1,8(a0)
    800000b0:	4301                	li	t1,0
    800000b2:	0322                	slli	t1,t1,0x8
    800000b4:	10032073          	csrs	sstatus,t1
    800000b8:	00002317          	auipc	t1,0x2
    800000bc:	04830313          	addi	t1,t1,72 # 80002100 <satp_config>
    800000c0:	00033383          	ld	t2,0(t1)
    800000c4:	12000073          	sfence.vma
    800000c8:	18039073          	csrw	satp,t2
    800000cc:	12000073          	sfence.vma
    800000d0:	4e81                	li	t4,0
    800000d2:	141e9073          	csrw	sepc,t4
    800000d6:	10200073          	sret
    800000da:	00000013          	nop
    800000de:	0001                	nop

00000000800000e0 <page_fault_handler>:
    800000e0:	343027f3          	csrr	a5,mtval
    800000e4:	342026f3          	csrr	a3,mcause
    800000e8:	83b1                	srli	a5,a5,0xc
    800000ea:	1ff7f793          	andi	a5,a5,511
    800000ee:	00083537          	lui	a0,0x83
    800000f2:	2505                	addiw	a0,a0,1
    800000f4:	0532                	slli	a0,a0,0xc
    800000f6:	4621                	li	a2,8
    800000f8:	02f607b3          	mul	a5,a2,a5
    800000fc:	953e                	add	a0,a0,a5
    800000fe:	4631                	li	a2,12
    80000100:	06c69063          	bne	a3,a2,80000160 <data_fault>
    80000104:	40000613          	li	a2,1024
    80000108:	00080837          	lui	a6,0x80
    8000010c:	2805                	addiw	a6,a6,1
    8000010e:	0832                	slli	a6,a6,0xc
    80000110:	00080737          	lui	a4,0x80
    80000114:	2709                	addiw	a4,a4,2
    80000116:	00002897          	auipc	a7,0x2
    8000011a:	eea88893          	addi	a7,a7,-278 # 80002000 <var_count>
    8000011e:	0008a883          	lw	a7,0(a7)
    80000122:	9746                	add	a4,a4,a7
    80000124:	0732                	slli	a4,a4,0xc
    80000126:	00000013          	nop
    8000012a:	00000013          	nop
    8000012e:	0001                	nop

0000000080000130 <loop>:
    80000130:	00082883          	lw	a7,0(a6) # 80000 <main-0x7ff80000>
    80000134:	01172023          	sw	a7,0(a4) # 80000 <main-0x7ff80000>
    80000138:	0811                	addi	a6,a6,4
    8000013a:	0711                	addi	a4,a4,4
    8000013c:	167d                	addi	a2,a2,-1
    8000013e:	fa6d                	bnez	a2,80000130 <loop>
    80000140:	000805b7          	lui	a1,0x80
    80000144:	2585                	addiw	a1,a1,1
    80000146:	05aa                	slli	a1,a1,0xa
    80000148:	0fb5e593          	ori	a1,a1,251
    8000014c:	e10c                	sd	a1,0(a0)
    8000014e:	30200073          	mret
    80000152:	0001                	nop
    80000154:	00000013          	nop
    80000158:	00000013          	nop
    8000015c:	00000013          	nop

0000000080000160 <data_fault>:
    80000160:	000805b7          	lui	a1,0x80
    80000164:	2589                	addiw	a1,a1,2
    80000166:	05aa                	slli	a1,a1,0xa
    80000168:	0f75e593          	ori	a1,a1,247
    8000016c:	e10c                	sd	a1,0(a0)
    8000016e:	30200073          	mret
    80000172:	00000013          	nop
    80000176:	00000013          	nop
    8000017a:	00000013          	nop
    8000017e:	00000013          	nop
    80000182:	00000013          	nop
    80000186:	00000013          	nop
    8000018a:	00000013          	nop
    8000018e:	00000013          	nop
    80000192:	00000013          	nop
    80000196:	00000013          	nop
    8000019a:	00000013          	nop
    8000019e:	00000013          	nop
    800001a2:	00000013          	nop
    800001a6:	00000013          	nop
    800001aa:	00000013          	nop
    800001ae:	00000013          	nop
    800001b2:	00000013          	nop
    800001b6:	00000013          	nop
    800001ba:	00000013          	nop
    800001be:	00000013          	nop
    800001c2:	00000013          	nop
    800001c6:	00000013          	nop
    800001ca:	00000013          	nop
    800001ce:	00000013          	nop
    800001d2:	00000013          	nop
    800001d6:	00000013          	nop
    800001da:	00000013          	nop
    800001de:	00000013          	nop
    800001e2:	00000013          	nop
    800001e6:	00000013          	nop
    800001ea:	00000013          	nop
    800001ee:	00000013          	nop
    800001f2:	00000013          	nop
    800001f6:	00000013          	nop
    800001fa:	00000013          	nop
    800001fe:	00000013          	nop
    80000202:	00000013          	nop
    80000206:	00000013          	nop
    8000020a:	00000013          	nop
    8000020e:	00000013          	nop
    80000212:	00000013          	nop
    80000216:	00000013          	nop
    8000021a:	00000013          	nop
    8000021e:	00000013          	nop
    80000222:	00000013          	nop
    80000226:	00000013          	nop
    8000022a:	00000013          	nop
    8000022e:	00000013          	nop
    80000232:	00000013          	nop
    80000236:	00000013          	nop
    8000023a:	00000013          	nop
    8000023e:	00000013          	nop
    80000242:	00000013          	nop
    80000246:	00000013          	nop
    8000024a:	00000013          	nop
    8000024e:	00000013          	nop
    80000252:	00000013          	nop
    80000256:	00000013          	nop
    8000025a:	00000013          	nop
    8000025e:	00000013          	nop
    80000262:	00000013          	nop
    80000266:	00000013          	nop
    8000026a:	00000013          	nop
    8000026e:	00000013          	nop
    80000272:	00000013          	nop
    80000276:	00000013          	nop
    8000027a:	00000013          	nop
    8000027e:	00000013          	nop
    80000282:	00000013          	nop
    80000286:	00000013          	nop
    8000028a:	00000013          	nop
    8000028e:	00000013          	nop
    80000292:	00000013          	nop
    80000296:	00000013          	nop
    8000029a:	00000013          	nop
    8000029e:	00000013          	nop
    800002a2:	00000013          	nop
    800002a6:	00000013          	nop
    800002aa:	00000013          	nop
    800002ae:	00000013          	nop
    800002b2:	00000013          	nop
    800002b6:	00000013          	nop
    800002ba:	00000013          	nop
    800002be:	00000013          	nop
    800002c2:	00000013          	nop
    800002c6:	00000013          	nop
    800002ca:	00000013          	nop
    800002ce:	00000013          	nop
    800002d2:	00000013          	nop
    800002d6:	00000013          	nop
    800002da:	00000013          	nop
    800002de:	00000013          	nop
    800002e2:	00000013          	nop
    800002e6:	00000013          	nop
    800002ea:	00000013          	nop
    800002ee:	00000013          	nop
    800002f2:	00000013          	nop
    800002f6:	00000013          	nop
    800002fa:	00000013          	nop
    800002fe:	00000013          	nop
    80000302:	00000013          	nop
    80000306:	00000013          	nop
    8000030a:	00000013          	nop
    8000030e:	00000013          	nop
    80000312:	00000013          	nop
    80000316:	00000013          	nop
    8000031a:	00000013          	nop
    8000031e:	00000013          	nop
    80000322:	00000013          	nop
    80000326:	00000013          	nop
    8000032a:	00000013          	nop
    8000032e:	00000013          	nop
    80000332:	00000013          	nop
    80000336:	00000013          	nop
    8000033a:	00000013          	nop
    8000033e:	00000013          	nop
    80000342:	00000013          	nop
    80000346:	00000013          	nop
    8000034a:	00000013          	nop
    8000034e:	00000013          	nop
    80000352:	00000013          	nop
    80000356:	00000013          	nop
    8000035a:	00000013          	nop
    8000035e:	00000013          	nop
    80000362:	00000013          	nop
    80000366:	00000013          	nop
    8000036a:	00000013          	nop
    8000036e:	00000013          	nop
    80000372:	00000013          	nop
    80000376:	00000013          	nop
    8000037a:	00000013          	nop
    8000037e:	00000013          	nop
    80000382:	00000013          	nop
    80000386:	00000013          	nop
    8000038a:	00000013          	nop
    8000038e:	00000013          	nop
    80000392:	00000013          	nop
    80000396:	00000013          	nop
    8000039a:	00000013          	nop
    8000039e:	00000013          	nop
    800003a2:	00000013          	nop
    800003a6:	00000013          	nop
    800003aa:	00000013          	nop
    800003ae:	00000013          	nop
    800003b2:	00000013          	nop
    800003b6:	00000013          	nop
    800003ba:	00000013          	nop
    800003be:	00000013          	nop
    800003c2:	00000013          	nop
    800003c6:	00000013          	nop
    800003ca:	00000013          	nop
    800003ce:	00000013          	nop
    800003d2:	00000013          	nop
    800003d6:	00000013          	nop
    800003da:	00000013          	nop
    800003de:	00000013          	nop
    800003e2:	00000013          	nop
    800003e6:	00000013          	nop
    800003ea:	00000013          	nop
    800003ee:	00000013          	nop
    800003f2:	00000013          	nop
    800003f6:	00000013          	nop
    800003fa:	00000013          	nop
    800003fe:	00000013          	nop
    80000402:	00000013          	nop
    80000406:	00000013          	nop
    8000040a:	00000013          	nop
    8000040e:	00000013          	nop
    80000412:	00000013          	nop
    80000416:	00000013          	nop
    8000041a:	00000013          	nop
    8000041e:	00000013          	nop
    80000422:	00000013          	nop
    80000426:	00000013          	nop
    8000042a:	00000013          	nop
    8000042e:	00000013          	nop
    80000432:	00000013          	nop
    80000436:	00000013          	nop
    8000043a:	00000013          	nop
    8000043e:	00000013          	nop
    80000442:	00000013          	nop
    80000446:	00000013          	nop
    8000044a:	00000013          	nop
    8000044e:	00000013          	nop
    80000452:	00000013          	nop
    80000456:	00000013          	nop
    8000045a:	00000013          	nop
    8000045e:	00000013          	nop
    80000462:	00000013          	nop
    80000466:	00000013          	nop
    8000046a:	00000013          	nop
    8000046e:	00000013          	nop
    80000472:	00000013          	nop
    80000476:	00000013          	nop
    8000047a:	00000013          	nop
    8000047e:	00000013          	nop
    80000482:	00000013          	nop
    80000486:	00000013          	nop
    8000048a:	00000013          	nop
    8000048e:	00000013          	nop
    80000492:	00000013          	nop
    80000496:	00000013          	nop
    8000049a:	00000013          	nop
    8000049e:	00000013          	nop
    800004a2:	00000013          	nop
    800004a6:	00000013          	nop
    800004aa:	00000013          	nop
    800004ae:	00000013          	nop
    800004b2:	00000013          	nop
    800004b6:	00000013          	nop
    800004ba:	00000013          	nop
    800004be:	00000013          	nop
    800004c2:	00000013          	nop
    800004c6:	00000013          	nop
    800004ca:	00000013          	nop
    800004ce:	00000013          	nop
    800004d2:	00000013          	nop
    800004d6:	00000013          	nop
    800004da:	00000013          	nop
    800004de:	00000013          	nop
    800004e2:	00000013          	nop
    800004e6:	00000013          	nop
    800004ea:	00000013          	nop
    800004ee:	00000013          	nop
    800004f2:	00000013          	nop
    800004f6:	00000013          	nop
    800004fa:	00000013          	nop
    800004fe:	00000013          	nop
    80000502:	00000013          	nop
    80000506:	00000013          	nop
    8000050a:	00000013          	nop
    8000050e:	00000013          	nop
    80000512:	00000013          	nop
    80000516:	00000013          	nop
    8000051a:	00000013          	nop
    8000051e:	00000013          	nop
    80000522:	00000013          	nop
    80000526:	00000013          	nop
    8000052a:	00000013          	nop
    8000052e:	00000013          	nop
    80000532:	00000013          	nop
    80000536:	00000013          	nop
    8000053a:	00000013          	nop
    8000053e:	00000013          	nop
    80000542:	00000013          	nop
    80000546:	00000013          	nop
    8000054a:	00000013          	nop
    8000054e:	00000013          	nop
    80000552:	00000013          	nop
    80000556:	00000013          	nop
    8000055a:	00000013          	nop
    8000055e:	00000013          	nop
    80000562:	00000013          	nop
    80000566:	00000013          	nop
    8000056a:	00000013          	nop
    8000056e:	00000013          	nop
    80000572:	00000013          	nop
    80000576:	00000013          	nop
    8000057a:	00000013          	nop
    8000057e:	00000013          	nop
    80000582:	00000013          	nop
    80000586:	00000013          	nop
    8000058a:	00000013          	nop
    8000058e:	00000013          	nop
    80000592:	00000013          	nop
    80000596:	00000013          	nop
    8000059a:	00000013          	nop
    8000059e:	00000013          	nop
    800005a2:	00000013          	nop
    800005a6:	00000013          	nop
    800005aa:	00000013          	nop
    800005ae:	00000013          	nop
    800005b2:	00000013          	nop
    800005b6:	00000013          	nop
    800005ba:	00000013          	nop
    800005be:	00000013          	nop
    800005c2:	00000013          	nop
    800005c6:	00000013          	nop
    800005ca:	00000013          	nop
    800005ce:	00000013          	nop
    800005d2:	00000013          	nop
    800005d6:	00000013          	nop
    800005da:	00000013          	nop
    800005de:	00000013          	nop
    800005e2:	00000013          	nop
    800005e6:	00000013          	nop
    800005ea:	00000013          	nop
    800005ee:	00000013          	nop
    800005f2:	00000013          	nop
    800005f6:	00000013          	nop
    800005fa:	00000013          	nop
    800005fe:	00000013          	nop
    80000602:	00000013          	nop
    80000606:	00000013          	nop
    8000060a:	00000013          	nop
    8000060e:	00000013          	nop
    80000612:	00000013          	nop
    80000616:	00000013          	nop
    8000061a:	00000013          	nop
    8000061e:	00000013          	nop
    80000622:	00000013          	nop
    80000626:	00000013          	nop
    8000062a:	00000013          	nop
    8000062e:	00000013          	nop
    80000632:	00000013          	nop
    80000636:	00000013          	nop
    8000063a:	00000013          	nop
    8000063e:	00000013          	nop
    80000642:	00000013          	nop
    80000646:	00000013          	nop
    8000064a:	00000013          	nop
    8000064e:	00000013          	nop
    80000652:	00000013          	nop
    80000656:	00000013          	nop
    8000065a:	00000013          	nop
    8000065e:	00000013          	nop
    80000662:	00000013          	nop
    80000666:	00000013          	nop
    8000066a:	00000013          	nop
    8000066e:	00000013          	nop
    80000672:	00000013          	nop
    80000676:	00000013          	nop
    8000067a:	00000013          	nop
    8000067e:	00000013          	nop
    80000682:	00000013          	nop
    80000686:	00000013          	nop
    8000068a:	00000013          	nop
    8000068e:	00000013          	nop
    80000692:	00000013          	nop
    80000696:	00000013          	nop
    8000069a:	00000013          	nop
    8000069e:	00000013          	nop
    800006a2:	00000013          	nop
    800006a6:	00000013          	nop
    800006aa:	00000013          	nop
    800006ae:	00000013          	nop
    800006b2:	00000013          	nop
    800006b6:	00000013          	nop
    800006ba:	00000013          	nop
    800006be:	00000013          	nop
    800006c2:	00000013          	nop
    800006c6:	00000013          	nop
    800006ca:	00000013          	nop
    800006ce:	00000013          	nop
    800006d2:	00000013          	nop
    800006d6:	00000013          	nop
    800006da:	00000013          	nop
    800006de:	00000013          	nop
    800006e2:	00000013          	nop
    800006e6:	00000013          	nop
    800006ea:	00000013          	nop
    800006ee:	00000013          	nop
    800006f2:	00000013          	nop
    800006f6:	00000013          	nop
    800006fa:	00000013          	nop
    800006fe:	00000013          	nop
    80000702:	00000013          	nop
    80000706:	00000013          	nop
    8000070a:	00000013          	nop
    8000070e:	00000013          	nop
    80000712:	00000013          	nop
    80000716:	00000013          	nop
    8000071a:	00000013          	nop
    8000071e:	00000013          	nop
    80000722:	00000013          	nop
    80000726:	00000013          	nop
    8000072a:	00000013          	nop
    8000072e:	00000013          	nop
    80000732:	00000013          	nop
    80000736:	00000013          	nop
    8000073a:	00000013          	nop
    8000073e:	00000013          	nop
    80000742:	00000013          	nop
    80000746:	00000013          	nop
    8000074a:	00000013          	nop
    8000074e:	00000013          	nop
    80000752:	00000013          	nop
    80000756:	00000013          	nop
    8000075a:	00000013          	nop
    8000075e:	00000013          	nop
    80000762:	00000013          	nop
    80000766:	00000013          	nop
    8000076a:	00000013          	nop
    8000076e:	00000013          	nop
    80000772:	00000013          	nop
    80000776:	00000013          	nop
    8000077a:	00000013          	nop
    8000077e:	00000013          	nop
    80000782:	00000013          	nop
    80000786:	00000013          	nop
    8000078a:	00000013          	nop
    8000078e:	00000013          	nop
    80000792:	00000013          	nop
    80000796:	00000013          	nop
    8000079a:	00000013          	nop
    8000079e:	00000013          	nop
    800007a2:	00000013          	nop
    800007a6:	00000013          	nop
    800007aa:	00000013          	nop
    800007ae:	00000013          	nop
    800007b2:	00000013          	nop
    800007b6:	00000013          	nop
    800007ba:	00000013          	nop
    800007be:	00000013          	nop
    800007c2:	00000013          	nop
    800007c6:	00000013          	nop
    800007ca:	00000013          	nop
    800007ce:	00000013          	nop
    800007d2:	00000013          	nop
    800007d6:	00000013          	nop
    800007da:	00000013          	nop
    800007de:	00000013          	nop
    800007e2:	00000013          	nop
    800007e6:	00000013          	nop
    800007ea:	00000013          	nop
    800007ee:	00000013          	nop
    800007f2:	00000013          	nop
    800007f6:	00000013          	nop
    800007fa:	00000013          	nop
    800007fe:	00000013          	nop
    80000802:	00000013          	nop
    80000806:	00000013          	nop
    8000080a:	00000013          	nop
    8000080e:	00000013          	nop
    80000812:	00000013          	nop
    80000816:	00000013          	nop
    8000081a:	00000013          	nop
    8000081e:	00000013          	nop
    80000822:	00000013          	nop
    80000826:	00000013          	nop
    8000082a:	00000013          	nop
    8000082e:	00000013          	nop
    80000832:	00000013          	nop
    80000836:	00000013          	nop
    8000083a:	00000013          	nop
    8000083e:	00000013          	nop
    80000842:	00000013          	nop
    80000846:	00000013          	nop
    8000084a:	00000013          	nop
    8000084e:	00000013          	nop
    80000852:	00000013          	nop
    80000856:	00000013          	nop
    8000085a:	00000013          	nop
    8000085e:	00000013          	nop
    80000862:	00000013          	nop
    80000866:	00000013          	nop
    8000086a:	00000013          	nop
    8000086e:	00000013          	nop
    80000872:	00000013          	nop
    80000876:	00000013          	nop
    8000087a:	00000013          	nop
    8000087e:	00000013          	nop
    80000882:	00000013          	nop
    80000886:	00000013          	nop
    8000088a:	00000013          	nop
    8000088e:	00000013          	nop
    80000892:	00000013          	nop
    80000896:	00000013          	nop
    8000089a:	00000013          	nop
    8000089e:	00000013          	nop
    800008a2:	00000013          	nop
    800008a6:	00000013          	nop
    800008aa:	00000013          	nop
    800008ae:	00000013          	nop
    800008b2:	00000013          	nop
    800008b6:	00000013          	nop
    800008ba:	00000013          	nop
    800008be:	00000013          	nop
    800008c2:	00000013          	nop
    800008c6:	00000013          	nop
    800008ca:	00000013          	nop
    800008ce:	00000013          	nop
    800008d2:	00000013          	nop
    800008d6:	00000013          	nop
    800008da:	00000013          	nop
    800008de:	00000013          	nop
    800008e2:	00000013          	nop
    800008e6:	00000013          	nop
    800008ea:	00000013          	nop
    800008ee:	00000013          	nop
    800008f2:	00000013          	nop
    800008f6:	00000013          	nop
    800008fa:	00000013          	nop
    800008fe:	00000013          	nop
    80000902:	00000013          	nop
    80000906:	00000013          	nop
    8000090a:	00000013          	nop
    8000090e:	00000013          	nop
    80000912:	00000013          	nop
    80000916:	00000013          	nop
    8000091a:	00000013          	nop
    8000091e:	00000013          	nop
    80000922:	00000013          	nop
    80000926:	00000013          	nop
    8000092a:	00000013          	nop
    8000092e:	00000013          	nop
    80000932:	00000013          	nop
    80000936:	00000013          	nop
    8000093a:	00000013          	nop
    8000093e:	00000013          	nop
    80000942:	00000013          	nop
    80000946:	00000013          	nop
    8000094a:	00000013          	nop
    8000094e:	00000013          	nop
    80000952:	00000013          	nop
    80000956:	00000013          	nop
    8000095a:	00000013          	nop
    8000095e:	00000013          	nop
    80000962:	00000013          	nop
    80000966:	00000013          	nop
    8000096a:	00000013          	nop
    8000096e:	00000013          	nop
    80000972:	00000013          	nop
    80000976:	00000013          	nop
    8000097a:	00000013          	nop
    8000097e:	00000013          	nop
    80000982:	00000013          	nop
    80000986:	00000013          	nop
    8000098a:	00000013          	nop
    8000098e:	00000013          	nop
    80000992:	00000013          	nop
    80000996:	00000013          	nop
    8000099a:	00000013          	nop
    8000099e:	00000013          	nop
    800009a2:	00000013          	nop
    800009a6:	00000013          	nop
    800009aa:	00000013          	nop
    800009ae:	00000013          	nop
    800009b2:	00000013          	nop
    800009b6:	00000013          	nop
    800009ba:	00000013          	nop
    800009be:	00000013          	nop
    800009c2:	00000013          	nop
    800009c6:	00000013          	nop
    800009ca:	00000013          	nop
    800009ce:	00000013          	nop
    800009d2:	00000013          	nop
    800009d6:	00000013          	nop
    800009da:	00000013          	nop
    800009de:	00000013          	nop
    800009e2:	00000013          	nop
    800009e6:	00000013          	nop
    800009ea:	00000013          	nop
    800009ee:	00000013          	nop
    800009f2:	00000013          	nop
    800009f6:	00000013          	nop
    800009fa:	00000013          	nop
    800009fe:	00000013          	nop
    80000a02:	00000013          	nop
    80000a06:	00000013          	nop
    80000a0a:	00000013          	nop
    80000a0e:	00000013          	nop
    80000a12:	00000013          	nop
    80000a16:	00000013          	nop
    80000a1a:	00000013          	nop
    80000a1e:	00000013          	nop
    80000a22:	00000013          	nop
    80000a26:	00000013          	nop
    80000a2a:	00000013          	nop
    80000a2e:	00000013          	nop
    80000a32:	00000013          	nop
    80000a36:	00000013          	nop
    80000a3a:	00000013          	nop
    80000a3e:	00000013          	nop
    80000a42:	00000013          	nop
    80000a46:	00000013          	nop
    80000a4a:	00000013          	nop
    80000a4e:	00000013          	nop
    80000a52:	00000013          	nop
    80000a56:	00000013          	nop
    80000a5a:	00000013          	nop
    80000a5e:	00000013          	nop
    80000a62:	00000013          	nop
    80000a66:	00000013          	nop
    80000a6a:	00000013          	nop
    80000a6e:	00000013          	nop
    80000a72:	00000013          	nop
    80000a76:	00000013          	nop
    80000a7a:	00000013          	nop
    80000a7e:	00000013          	nop
    80000a82:	00000013          	nop
    80000a86:	00000013          	nop
    80000a8a:	00000013          	nop
    80000a8e:	00000013          	nop
    80000a92:	00000013          	nop
    80000a96:	00000013          	nop
    80000a9a:	00000013          	nop
    80000a9e:	00000013          	nop
    80000aa2:	00000013          	nop
    80000aa6:	00000013          	nop
    80000aaa:	00000013          	nop
    80000aae:	00000013          	nop
    80000ab2:	00000013          	nop
    80000ab6:	00000013          	nop
    80000aba:	00000013          	nop
    80000abe:	00000013          	nop
    80000ac2:	00000013          	nop
    80000ac6:	00000013          	nop
    80000aca:	00000013          	nop
    80000ace:	00000013          	nop
    80000ad2:	00000013          	nop
    80000ad6:	00000013          	nop
    80000ada:	00000013          	nop
    80000ade:	00000013          	nop
    80000ae2:	00000013          	nop
    80000ae6:	00000013          	nop
    80000aea:	00000013          	nop
    80000aee:	00000013          	nop
    80000af2:	00000013          	nop
    80000af6:	00000013          	nop
    80000afa:	00000013          	nop
    80000afe:	00000013          	nop
    80000b02:	00000013          	nop
    80000b06:	00000013          	nop
    80000b0a:	00000013          	nop
    80000b0e:	00000013          	nop
    80000b12:	00000013          	nop
    80000b16:	00000013          	nop
    80000b1a:	00000013          	nop
    80000b1e:	00000013          	nop
    80000b22:	00000013          	nop
    80000b26:	00000013          	nop
    80000b2a:	00000013          	nop
    80000b2e:	00000013          	nop
    80000b32:	00000013          	nop
    80000b36:	00000013          	nop
    80000b3a:	00000013          	nop
    80000b3e:	00000013          	nop
    80000b42:	00000013          	nop
    80000b46:	00000013          	nop
    80000b4a:	00000013          	nop
    80000b4e:	00000013          	nop
    80000b52:	00000013          	nop
    80000b56:	00000013          	nop
    80000b5a:	00000013          	nop
    80000b5e:	00000013          	nop
    80000b62:	00000013          	nop
    80000b66:	00000013          	nop
    80000b6a:	00000013          	nop
    80000b6e:	00000013          	nop
    80000b72:	00000013          	nop
    80000b76:	00000013          	nop
    80000b7a:	00000013          	nop
    80000b7e:	00000013          	nop
    80000b82:	00000013          	nop
    80000b86:	00000013          	nop
    80000b8a:	00000013          	nop
    80000b8e:	00000013          	nop
    80000b92:	00000013          	nop
    80000b96:	00000013          	nop
    80000b9a:	00000013          	nop
    80000b9e:	00000013          	nop
    80000ba2:	00000013          	nop
    80000ba6:	00000013          	nop
    80000baa:	00000013          	nop
    80000bae:	00000013          	nop
    80000bb2:	00000013          	nop
    80000bb6:	00000013          	nop
    80000bba:	00000013          	nop
    80000bbe:	00000013          	nop
    80000bc2:	00000013          	nop
    80000bc6:	00000013          	nop
    80000bca:	00000013          	nop
    80000bce:	00000013          	nop
    80000bd2:	00000013          	nop
    80000bd6:	00000013          	nop
    80000bda:	00000013          	nop
    80000bde:	00000013          	nop
    80000be2:	00000013          	nop
    80000be6:	00000013          	nop
    80000bea:	00000013          	nop
    80000bee:	00000013          	nop
    80000bf2:	00000013          	nop
    80000bf6:	00000013          	nop
    80000bfa:	00000013          	nop
    80000bfe:	00000013          	nop
    80000c02:	00000013          	nop
    80000c06:	00000013          	nop
    80000c0a:	00000013          	nop
    80000c0e:	00000013          	nop
    80000c12:	00000013          	nop
    80000c16:	00000013          	nop
    80000c1a:	00000013          	nop
    80000c1e:	00000013          	nop
    80000c22:	00000013          	nop
    80000c26:	00000013          	nop
    80000c2a:	00000013          	nop
    80000c2e:	00000013          	nop
    80000c32:	00000013          	nop
    80000c36:	00000013          	nop
    80000c3a:	00000013          	nop
    80000c3e:	00000013          	nop
    80000c42:	00000013          	nop
    80000c46:	00000013          	nop
    80000c4a:	00000013          	nop
    80000c4e:	00000013          	nop
    80000c52:	00000013          	nop
    80000c56:	00000013          	nop
    80000c5a:	00000013          	nop
    80000c5e:	00000013          	nop
    80000c62:	00000013          	nop
    80000c66:	00000013          	nop
    80000c6a:	00000013          	nop
    80000c6e:	00000013          	nop
    80000c72:	00000013          	nop
    80000c76:	00000013          	nop
    80000c7a:	00000013          	nop
    80000c7e:	00000013          	nop
    80000c82:	00000013          	nop
    80000c86:	00000013          	nop
    80000c8a:	00000013          	nop
    80000c8e:	00000013          	nop
    80000c92:	00000013          	nop
    80000c96:	00000013          	nop
    80000c9a:	00000013          	nop
    80000c9e:	00000013          	nop
    80000ca2:	00000013          	nop
    80000ca6:	00000013          	nop
    80000caa:	00000013          	nop
    80000cae:	00000013          	nop
    80000cb2:	00000013          	nop
    80000cb6:	00000013          	nop
    80000cba:	00000013          	nop
    80000cbe:	00000013          	nop
    80000cc2:	00000013          	nop
    80000cc6:	00000013          	nop
    80000cca:	00000013          	nop
    80000cce:	00000013          	nop
    80000cd2:	00000013          	nop
    80000cd6:	00000013          	nop
    80000cda:	00000013          	nop
    80000cde:	00000013          	nop
    80000ce2:	00000013          	nop
    80000ce6:	00000013          	nop
    80000cea:	00000013          	nop
    80000cee:	00000013          	nop
    80000cf2:	00000013          	nop
    80000cf6:	00000013          	nop
    80000cfa:	00000013          	nop
    80000cfe:	00000013          	nop
    80000d02:	00000013          	nop
    80000d06:	00000013          	nop
    80000d0a:	00000013          	nop
    80000d0e:	00000013          	nop
    80000d12:	00000013          	nop
    80000d16:	00000013          	nop
    80000d1a:	00000013          	nop
    80000d1e:	00000013          	nop
    80000d22:	00000013          	nop
    80000d26:	00000013          	nop
    80000d2a:	00000013          	nop
    80000d2e:	00000013          	nop
    80000d32:	00000013          	nop
    80000d36:	00000013          	nop
    80000d3a:	00000013          	nop
    80000d3e:	00000013          	nop
    80000d42:	00000013          	nop
    80000d46:	00000013          	nop
    80000d4a:	00000013          	nop
    80000d4e:	00000013          	nop
    80000d52:	00000013          	nop
    80000d56:	00000013          	nop
    80000d5a:	00000013          	nop
    80000d5e:	00000013          	nop
    80000d62:	00000013          	nop
    80000d66:	00000013          	nop
    80000d6a:	00000013          	nop
    80000d6e:	00000013          	nop
    80000d72:	00000013          	nop
    80000d76:	00000013          	nop
    80000d7a:	00000013          	nop
    80000d7e:	00000013          	nop
    80000d82:	00000013          	nop
    80000d86:	00000013          	nop
    80000d8a:	00000013          	nop
    80000d8e:	00000013          	nop
    80000d92:	00000013          	nop
    80000d96:	00000013          	nop
    80000d9a:	00000013          	nop
    80000d9e:	00000013          	nop
    80000da2:	00000013          	nop
    80000da6:	00000013          	nop
    80000daa:	00000013          	nop
    80000dae:	00000013          	nop
    80000db2:	00000013          	nop
    80000db6:	00000013          	nop
    80000dba:	00000013          	nop
    80000dbe:	00000013          	nop
    80000dc2:	00000013          	nop
    80000dc6:	00000013          	nop
    80000dca:	00000013          	nop
    80000dce:	00000013          	nop
    80000dd2:	00000013          	nop
    80000dd6:	00000013          	nop
    80000dda:	00000013          	nop
    80000dde:	00000013          	nop
    80000de2:	00000013          	nop
    80000de6:	00000013          	nop
    80000dea:	00000013          	nop
    80000dee:	00000013          	nop
    80000df2:	00000013          	nop
    80000df6:	00000013          	nop
    80000dfa:	00000013          	nop
    80000dfe:	00000013          	nop
    80000e02:	00000013          	nop
    80000e06:	00000013          	nop
    80000e0a:	00000013          	nop
    80000e0e:	00000013          	nop
    80000e12:	00000013          	nop
    80000e16:	00000013          	nop
    80000e1a:	00000013          	nop
    80000e1e:	00000013          	nop
    80000e22:	00000013          	nop
    80000e26:	00000013          	nop
    80000e2a:	00000013          	nop
    80000e2e:	00000013          	nop
    80000e32:	00000013          	nop
    80000e36:	00000013          	nop
    80000e3a:	00000013          	nop
    80000e3e:	00000013          	nop
    80000e42:	00000013          	nop
    80000e46:	00000013          	nop
    80000e4a:	00000013          	nop
    80000e4e:	00000013          	nop
    80000e52:	00000013          	nop
    80000e56:	00000013          	nop
    80000e5a:	00000013          	nop
    80000e5e:	00000013          	nop
    80000e62:	00000013          	nop
    80000e66:	00000013          	nop
    80000e6a:	00000013          	nop
    80000e6e:	00000013          	nop
    80000e72:	00000013          	nop
    80000e76:	00000013          	nop
    80000e7a:	00000013          	nop
    80000e7e:	00000013          	nop
    80000e82:	00000013          	nop
    80000e86:	00000013          	nop
    80000e8a:	00000013          	nop
    80000e8e:	00000013          	nop
    80000e92:	00000013          	nop
    80000e96:	00000013          	nop
    80000e9a:	00000013          	nop
    80000e9e:	00000013          	nop
    80000ea2:	00000013          	nop
    80000ea6:	00000013          	nop
    80000eaa:	00000013          	nop
    80000eae:	00000013          	nop
    80000eb2:	00000013          	nop
    80000eb6:	00000013          	nop
    80000eba:	00000013          	nop
    80000ebe:	00000013          	nop
    80000ec2:	00000013          	nop
    80000ec6:	00000013          	nop
    80000eca:	00000013          	nop
    80000ece:	00000013          	nop
    80000ed2:	00000013          	nop
    80000ed6:	00000013          	nop
    80000eda:	00000013          	nop
    80000ede:	00000013          	nop
    80000ee2:	00000013          	nop
    80000ee6:	00000013          	nop
    80000eea:	00000013          	nop
    80000eee:	00000013          	nop
    80000ef2:	00000013          	nop
    80000ef6:	00000013          	nop
    80000efa:	00000013          	nop
    80000efe:	00000013          	nop
    80000f02:	00000013          	nop
    80000f06:	00000013          	nop
    80000f0a:	00000013          	nop
    80000f0e:	00000013          	nop
    80000f12:	00000013          	nop
    80000f16:	00000013          	nop
    80000f1a:	00000013          	nop
    80000f1e:	00000013          	nop
    80000f22:	00000013          	nop
    80000f26:	00000013          	nop
    80000f2a:	00000013          	nop
    80000f2e:	00000013          	nop
    80000f32:	00000013          	nop
    80000f36:	00000013          	nop
    80000f3a:	00000013          	nop
    80000f3e:	00000013          	nop
    80000f42:	00000013          	nop
    80000f46:	00000013          	nop
    80000f4a:	00000013          	nop
    80000f4e:	00000013          	nop
    80000f52:	00000013          	nop
    80000f56:	00000013          	nop
    80000f5a:	00000013          	nop
    80000f5e:	00000013          	nop
    80000f62:	00000013          	nop
    80000f66:	00000013          	nop
    80000f6a:	00000013          	nop
    80000f6e:	00000013          	nop
    80000f72:	00000013          	nop
    80000f76:	00000013          	nop
    80000f7a:	00000013          	nop
    80000f7e:	00000013          	nop
    80000f82:	00000013          	nop
    80000f86:	00000013          	nop
    80000f8a:	00000013          	nop
    80000f8e:	00000013          	nop
    80000f92:	00000013          	nop
    80000f96:	00000013          	nop
    80000f9a:	00000013          	nop
    80000f9e:	00000013          	nop
    80000fa2:	00000013          	nop
    80000fa6:	00000013          	nop
    80000faa:	00000013          	nop
    80000fae:	00000013          	nop
    80000fb2:	00000013          	nop
    80000fb6:	00000013          	nop
    80000fba:	00000013          	nop
    80000fbe:	00000013          	nop
    80000fc2:	00000013          	nop
    80000fc6:	00000013          	nop
    80000fca:	00000013          	nop
    80000fce:	00000013          	nop
    80000fd2:	00000013          	nop
    80000fd6:	00000013          	nop
    80000fda:	00000013          	nop
    80000fde:	00000013          	nop
    80000fe2:	00000013          	nop
    80000fe6:	00000013          	nop
    80000fea:	00000013          	nop
    80000fee:	00000013          	nop
    80000ff2:	00000013          	nop
    80000ff6:	00000013          	nop
    80000ffa:	00000013          	nop
    80000ffe:	0001                	nop

0000000080001000 <user_code>:
    80001000:	00001317          	auipc	t1,0x1
    80001004:	00030313          	mv	t1,t1
    80001008:	00032383          	lw	t2,0(t1) # 80002000 <var_count>
    8000100c:	0385                	addi	t2,t2,1
    8000100e:	00732023          	sw	t2,0(t1)
    80001012:	00001f17          	auipc	t5,0x1
    80001016:	ff2f0f13          	addi	t5,t5,-14 # 80002004 <code_jump_position>
    8000101a:	000f2e03          	lw	t3,0(t5)
    8000101e:	6e89                	lui	t4,0x2
    80001020:	9e76                	add	t3,t3,t4
    80001022:	01cf2023          	sw	t3,0(t5)
    80001026:	000e02e7          	jalr	t0,t3
	...
